Certificate:
    Data:
        Version: 3 (0x2)
        Serial Number: 4612 (0x1204)
    Signature Algorithm: sha256WithRSAEncryption
        Issuer: C=CN, O=\xE6\x9D\xAD\xE5\xB7\x9E\xE5\xA4\xA9\xE8\xB0\xB7\xE4\xBF\xA1\xE6\x81\xAF\xE7\xA7\x91\xE6\x8A\x80\xE6\x9C\x89\xE9\x99\x90\xE5\x85\xAC\xE5\x8F\xB8(\xE5\xAE\xA2\xE6\x88\xB7\xE7\xAB\xAF\xE6\xB5\x8B\xE8\xAF\x95), L=\xE6\x9D\xAD\xE5\xB7\x9E\xE5\xB8\x82, ST=\xE6\xB5\x99\xE6\xB1\x9F\xE7\x9C\x81, CN=TGRoot_01
        Validity
            Not Before: Aug 20 11:05:35 2019 GMT
            Not After : Aug  7 11:05:35 2069 GMT
        Subject: C=CN, ST=\xE6\xB5\x99\xE6\xB1\x9F\xE7\x9C\x81, L=\xE6\x9D\xAD\xE5\xB7\x9E\xE5\xB8\x82, O=\xE6\x9D\xAD\xE5\xB7\x9E\xE5\xA4\xA9\xE8\xB0\xB7\xE4\xBF\xA1\xE6\x81\xAF\xE7\xA7\x91\xE6\x8A\x80\xE6\x9C\x89\xE9\x99\x90\xE5\x85\xAC\xE5\x8F\xB8(\xE5\xAE\xA2\xE6\x88\xB7\xE7\xAB\xAF\xE6\xB5\x8B\xE8\xAF\x95), CN=127.0.0.1
        Subject Public Key Info:
            Public Key Algorithm: rsaEncryption
                Public-Key: (2048 bit)
                Modulus:
                    00:ce:b6:b7:3b:4a:c3:a5:71:7d:23:44:31:f4:f3:
                    2b:b2:5d:96:80:22:f3:33:42:fc:fa:c5:2b:ef:08:
                    af:68:ce:0a:85:f8:e6:3b:c5:3a:34:e3:a5:e8:a8:
                    01:df:0b:ba:2d:b8:54:8f:2d:f5:9f:57:f3:ff:8a:
                    90:0c:09:9f:ba:e3:65:78:69:e2:87:45:b8:80:b2:
                    5a:68:d3:1f:b6:df:43:a7:ed:0c:ed:02:0c:28:5f:
                    59:8e:59:e3:d8:32:b0:10:20:b4:6c:94:75:77:a2:
                    9e:85:18:db:d7:c8:08:b8:52:76:de:57:78:56:b1:
                    ff:59:6f:10:3c:c2:e9:8e:1b:df:fb:07:7d:8d:32:
                    cb:59:0c:8e:5f:30:e6:1b:dd:7b:23:9f:8f:bc:d5:
                    00:cd:2f:60:51:82:f2:3e:45:64:bc:11:38:25:cf:
                    d2:7e:f1:ea:7e:b8:b3:f6:e4:9e:71:0b:9c:a7:b0:
                    f1:74:dc:6e:16:aa:38:81:1c:90:ae:03:7c:b4:7f:
                    c1:48:7d:82:5b:ce:8d:8b:a9:6b:a4:79:0b:2b:79:
                    0c:8e:50:98:d9:e7:9e:e8:d0:b6:67:08:6b:49:65:
                    75:de:dd:e4:0c:d3:63:92:5b:58:86:28:65:3e:7b:
                    3a:e3:9f:75:d9:a8:5f:1e:c1:b7:d6:79:96:ff:0c:
                    32:d3
                Exponent: 65537 (0x10001)
        X509v3 extensions:
            X509v3 Subject Alternative Name: 
                IP Address:127.0.0.1, IP Address:192.168.120.238, DNS:localhost, DNS:TGClientService.com
    Signature Algorithm: sha256WithRSAEncryption
         70:e9:fa:45:7f:38:15:02:8d:60:ab:d0:f4:fc:fd:97:99:1f:
         95:db:d8:ba:45:33:63:7d:e9:ef:31:54:ab:5b:23:a5:d5:37:
         5d:5b:ff:1f:1c:86:d1:12:43:b9:68:71:25:79:f7:13:b4:97:
         22:e6:92:a6:77:cd:13:ae:a3:a6:39:c8:c8:e0:e7:67:8c:f8:
         76:4a:e3:2c:dd:c5:ea:2c:12:21:64:81:cf:43:1c:8b:26:5c:
         9e:34:b4:78:cd:da:38:00:d0:6f:bd:ea:05:d4:99:cd:4c:86:
         eb:c9:72:00:41:89:5c:de:25:12:b5:85:90:47:d7:88:ce:d8:
         ee:03:d3:08:36:98:d1:b6:95:60:54:82:5c:9e:25:09:c2:36:
         de:71:47:f2:be:ea:e1:92:34:0d:4e:0a:b2:5b:30:e5:6d:97:
         44:c5:01:44:1b:d4:63:d2:f5:8d:d3:55:e1:51:9b:77:87:7f:
         96:57:34:8a:1f:3b:1c:59:7d:6f:e1:11:98:d9:8f:bb:01:c2:
         70:d1:e6:42:90:dc:5b:54:a1:ee:6a:93:16:ec:cf:2d:53:f7:
         78:2b:2b:13:29:50:f1:c3:ad:12:30:7d:e2:d4:91:b9:10:84:
         b7:b2:a4:61:94:b9:70:a5:bd:dc:31:5c:84:85:ee:bb:dc:7f:
         6f:b3:92:64:8a:bb:c2:26:70:f8:52:d0:23:e6:73:d5:bd:83:
         19:d5:fa:c1:d9:46:f0:dd:d3:0b:61:63:19:81:18:21:17:52:
         59:0c:8e:aa:e3:86:58:26:cc:17:af:2f:35:99:cd:77:50:4d:
         31:de:2c:6a:93:0f:ed:90:bf:1c:2a:ae:33:70:01:e1:54:f2:
         61:0e:c4:e4:9e:d6:0b:e9:57:76:e7:33:3f:80:b6:ab:53:00:
         2d:d8:7e:f5:4b:55:e2:63:9d:84:89:96:aa:8b:54:03:67:3d:
         87:01:f9:b6:82:16:a7:50:34:bb:ec:4e:c3:66:00:2d:d2:ae:
         cb:31:99:9f:41:2d:21:9e:51:32:f6:d0:a5:1a:fc:09:1e:8d:
         c6:5a:e5:39:31:8a:3f:bf:7a:71:61:0b:76:de:a7:59:d5:63:
         ea:11:61:63:99:1b:42:63:af:ba:af:7d:23:5c:92:22:74:32:
         ab:1e:05:e6:ed:26:9e:e2:64:48:3e:8b:cf:df:ea:1f:93:88:
         78:cd:72:90:39:fe:09:03:56:26:fd:4a:67:98:79:65:49:a6:
         07:69:0a:dc:4c:43:36:ae:8c:d2:9f:e4:9a:a5:4d:7f:53:8c:
         65:23:fc:c1:82:4d:d1:ae:d0:89:1f:80:3a:da:e3:65:67:a6:
         46:84:80:59:2b:6a:0c:71
-----BEGIN CERTIFICATE-----
MIIEyzCCArOgAwIBAgICEgQwDQYJKoZIhvcNAQELBQAwgYkxCzAJBgNVBAYTAkNO
MT4wPAYDVQQKDDXmna3lt57lpKnosLfkv6Hmga/np5HmioDmnInpmZDlhazlj7go
5a6i5oi356uv5rWL6K+VKTESMBAGA1UEBwwJ5p2t5bee5biCMRIwEAYDVQQIDAnm
tZnmsZ/nnIExEjAQBgNVBAMMCVRHUm9vdF8wMTAgFw0xOTA4MjAxMTA1MzVaGA8y
MDY5MDgwNzExMDUzNVowgYkxCzAJBgNVBAYTAkNOMRIwEAYDVQQIDAnmtZnmsZ/n
nIExEjAQBgNVBAcMCeadreW3nuW4gjE+MDwGA1UECgw15p2t5bee5aSp6LC35L+h
5oGv56eR5oqA5pyJ6ZmQ5YWs5Y+4KOWuouaIt+err+a1i+ivlSkxEjAQBgNVBAMM
CTEyNy4wLjAuMTCCASIwDQYJKoZIhvcNAQEBBQADggEPADCCAQoCggEBAM62tztK
w6VxfSNEMfTzK7JdloAi8zNC/PrFK+8Ir2jOCoX45jvFOjTjpeioAd8Lui24VI8t
9Z9X8/+KkAwJn7rjZXhp4odFuICyWmjTH7bfQ6ftDO0CDChfWY5Z49gysBAgtGyU
dXeinoUY29fICLhSdt5XeFax/1lvEDzC6Y4b3/sHfY0yy1kMjl8w5hvdeyOfj7zV
AM0vYFGC8j5FZLwROCXP0n7x6n64s/bknnELnKew8XTcbhaqOIEckK4DfLR/wUh9
glvOjYupa6R5Cyt5DI5QmNnnnujQtmcIa0lldd7d5AzTY5JbWIYoZT57OuOfddmo
Xx7Bt9Z5lv8MMtMCAwEAAaM5MDcwNQYDVR0RBC4wLIcEfwAAAYcEwKh47oIJbG9j
YWxob3N0ghNUR0NsaWVudFNlcnZpY2UuY29tMA0GCSqGSIb3DQEBCwUAA4ICAQBw
6fpFfzgVAo1gq9D0/P2XmR+V29i6RTNjfenvMVSrWyOl1TddW/8fHIbREkO5aHEl
efcTtJci5pKmd80TrqOmOcjI4OdnjPh2SuMs3cXqLBIhZIHPQxyLJlyeNLR4zdo4
ANBvveoF1JnNTIbryXIAQYlc3iUStYWQR9eIztjuA9MINpjRtpVgVIJcniUJwjbe
cUfyvurhkjQNTgqyWzDlbZdExQFEG9Rj0vWN01XhUZt3h3+WVzSKHzscWX1v4RGY
2Y+7AcJw0eZCkNxbVKHuapMW7M8tU/d4KysTKVDxw60SMH3i1JG5EIS3sqRhlLlw
pb3cMVyEhe673H9vs5JkirvCJnD4UtAj5nPVvYMZ1frB2Ubw3dMLYWMZgRghF1JZ
DI6q44ZYJswXry81mc13UE0x3ixqkw/tkL8cKq4zcAHhVPJhDsTkntYL6Vd25zM/
gLarUwAt2H71S1XiY52EiZaqi1QDZz2HAfm2ghanUDS77E7DZgAt0q7LMZmfQS0h
nlEy9tClGvwJHo3GWuU5MYo/v3pxYQt23qdZ1WPqEWFjmRtCY6+6r30jXJIidDKr
HgXm7Sae4mRIPovP3+ofk4h4zXKQOf4JA1Ym/UpnmHllSaYHaQrcTEM2rozSn+Sa
pU1/U4xlI/zBgk3RrtCJH4A62uNlZ6ZGhIBZK2oMcQ==
-----END CERTIFICATE-----
